; Function Attrs: fn_ret_thunk_extern nounwind null_pointer_is_valid
define internal noundef i64 @flags_show(ptr nocapture noundef readonly %0, ptr nocapture readnone %1, ptr nocapture noundef writeonly %2) #0 align 16 {
  %4 = getelementptr inbounds i8, ptr %0, i64 120
  %5 = load ptr, ptr %4, align 8
  %6 = getelementptr inbounds i8, ptr %5, i64 256
  tail call void @mutex_lock(ptr noundef %6) #19
  %7 = getelementptr inbounds i8, ptr %5, i64 432
  %8 = load ptr, ptr %7, align 8
  %9 = icmp eq ptr %8, null
  br i1 %9, label %uart_get_info.exit, label %10

10:                                               ; preds = %3
  %11 = getelementptr inbounds i8, ptr %8, i64 272
  %12 = load i64, ptr %11, align 8
  %13 = trunc i64 %12 to i32
  %14 = getelementptr inbounds i8, ptr %5, i64 352
  %15 = load i32, ptr %14, align 8
  %16 = zext i32 %15 to i64
  %17 = tail call i32 @jiffies_to_msecs(i64 noundef %16) #19
  %18 = getelementptr inbounds i8, ptr %5, i64 356
  %19 = load i32, ptr %18, align 4
  %20 = icmp eq i32 %19, 65535
  br i1 %20, label %uart_get_info.exit, label %21

21:                                               ; preds = %10
  %22 = zext i32 %19 to i64
  %23 = tail call i32 @jiffies_to_msecs(i64 noundef %22) #19
  br label %uart_get_info.exit

uart_get_info.exit:                               ; preds = %10, %21, %3
  %.sroa.8.0 = phi i32 [ 0, %3 ], [ %13, %21 ], [ %13, %10 ]
  tail call void @mutex_unlock(ptr noundef %6) #19
  %24 = tail call i32 (ptr, ptr, ...) @sprintf(ptr noundef %2, ptr noundef nonnull dereferenceable(1) @.str.61, i32 noundef %.sroa.8.0) #19
  %25 = sext i32 %24 to i64
  ret i64 %25
}